; Function Attrs: mustprogress nounwind uwtable
define void @_ZN4LIEF2PE14ResourceDialog5parseERKNS0_12ResourceDataE(ptr dead_on_unwind noalias writable writeonly sret(%"class.std::vector.38") align 8 captures(none) initializes((0, 24)) %0, ptr noundef nonnull readonly align 8 captures(none) dereferenceable(116) %1) local_unnamed_addr #1 align 2 {
  %3 = getelementptr inbounds nuw i8, ptr %1, i64 80
  %4 = load ptr, ptr %3, align 8, !tbaa !40
  %5 = getelementptr inbounds nuw i8, ptr %1, i64 88
  %6 = load ptr, ptr %5, align 8, !tbaa !42
  %7 = icmp eq ptr %6, %4
  br i1 %7, label %8, label %9

8:                                                ; preds = %2
  tail call void @llvm.memset.p0.i64(ptr noundef nonnull align 8 dereferenceable(24) %0, i8 0, i64 24, i1 false)
  br label %13

9:                                                ; preds = %2
  %10 = ptrtoint ptr %4 to i64
  %11 = ptrtoint ptr %6 to i64
  %12 = sub i64 %11, %10
  tail call void @_ZN4LIEF2PE14ResourceDialog5parseEPKhm(ptr dead_on_unwind writable sret(%"class.std::vector.38") align 8 %0, ptr noundef %4, i64 noundef %12)
  br label %13

13:                                               ; preds = %9, %8
  ret void
}